target datalayout = "e-m:e-p270:32:32-p271:32:32-p272:64:64-i64:64-i128:128-f80:128-n8:16:32:64-S128"
target triple = "x86_64-pc-linux-gnu"

%class.expr_context_simplifier = type <{ ptr, %class.arith_util, %class.obj_map, %class.ref_vector, %class.bool_rewriter, %class.obj_mark, i8, [7 x i8] }>
%class.arith_util = type { ptr, ptr }
%class.obj_map = type { %class.core_hashtable }
%class.core_hashtable = type <{ ptr, i32, i32, i32, [4 x i8] }>
%class.ref_vector = type { %class.ref_vector_core }
%class.ref_vector_core = type { %class.ref_manager_wrapper, %class.ptr_vector }
%class.ref_manager_wrapper = type { ptr }
%class.ptr_vector = type { %class.vector }
%class.vector = type { ptr }
%class.bool_rewriter = type { ptr, i8, i8, i8, i8, i8, i8, i32, i8, i32, i32, i8, %class.ptr_vector, %class.ptr_vector, %class.svector, %class.svector }
%class.svector = type { %class.vector.0 }
%class.vector.0 = type { ptr }
%class.obj_mark = type { [8 x i8], %class.bit_vector }
%class.bit_vector = type { i32, i32, ptr }
%class.obj_ref = type { ptr, ptr }
%class.ast = type { i32, i32, i32, i32 }

; Function Attrs: mustprogress nounwind uwtable
define linkonce_odr hidden noundef i32 @_ZNK3ast13get_ref_countEv(ptr noundef nonnull align 4 dereferenceable(16) %0) #7 comdat align 2 {
  %2 = alloca ptr, align 8
  store ptr %0, ptr %2, align 8, !tbaa !140
  %3 = load ptr, ptr %2, align 8
  %4 = getelementptr inbounds nuw %class.ast, ptr %3, i32 0, i32 2
  %5 = load i32, ptr %4, align 4, !tbaa !245
  ret i32 %5
}

; Function Attrs: mustprogress nounwind uwtable
define linkonce_odr hidden void @_ZN3ast7dec_refEv(ptr noundef nonnull align 4 dereferenceable(16) %0) #7 comdat align 2 {
  %2 = alloca ptr, align 8
  store ptr %0, ptr %2, align 8, !tbaa !140
  %3 = load ptr, ptr %2, align 8
  %4 = getelementptr inbounds nuw %class.ast, ptr %3, i32 0, i32 2
  %5 = load i32, ptr %4, align 4, !tbaa !245
  %6 = add i32 %5, -1
  store i32 %6, ptr %4, align 4, !tbaa !245
  ret void
}

; Function Attrs: mustprogress uwtable
define linkonce_odr hidden void @_ZN11ast_manager7dec_refEP3ast(ptr noundef nonnull align 8 dereferenceable(976) %0, ptr noundef %1) #4 comdat align 2 {
  %3 = alloca ptr, align 8
  %4 = alloca ptr, align 8
  store ptr %0, ptr %3, align 8, !tbaa !8
  store ptr %1, ptr %4, align 8, !tbaa !140
  %5 = load ptr, ptr %3, align 8
  %6 = load ptr, ptr %4, align 8, !tbaa !140
  %7 = icmp ne ptr %6, null
  br i1 %7, label %8, label %16

8:                                                ; preds = %2
  %9 = load ptr, ptr %4, align 8, !tbaa !140
  call void @_ZN3ast7dec_refEv(ptr noundef nonnull align 4 dereferenceable(16) %9)
  %10 = load ptr, ptr %4, align 8, !tbaa !140
  %11 = call noundef i32 @_ZNK3ast13get_ref_countEv(ptr noundef nonnull align 4 dereferenceable(16) %10)
  %12 = icmp eq i32 %11, 0
  br i1 %12, label %13, label %15

13:                                               ; preds = %8
  %14 = load ptr, ptr %4, align 8, !tbaa !140
  call void @_ZN11ast_manager11delete_nodeEP3ast(ptr noundef nonnull align 8 dereferenceable(976) %5, ptr noundef %14)
  br label %15

15:                                               ; preds = %13, %8
  br label %16

16:                                               ; preds = %15, %2
  ret void
}

; Function Attrs: mustprogress nounwind uwtable
define linkonce_odr hidden void @_ZN3ast7inc_refEv(ptr noundef nonnull align 4 dereferenceable(16) %0) #7 comdat align 2 {
  %2 = alloca ptr, align 8
  store ptr %0, ptr %2, align 8, !tbaa !140
  %3 = load ptr, ptr %2, align 8
  %4 = getelementptr inbounds nuw %class.ast, ptr %3, i32 0, i32 2
  %5 = load i32, ptr %4, align 4, !tbaa !245
  %6 = add i32 %5, 1
  store i32 %6, ptr %4, align 4, !tbaa !245
  ret void
}

; Function Attrs: mustprogress uwtable
define linkonce_odr hidden void @_ZN7obj_refI4expr11ast_managerE7dec_refEv(ptr noundef nonnull align 8 dereferenceable(16) %0) #4 comdat align 2 {
  %2 = alloca ptr, align 8
  store ptr %0, ptr %2, align 8, !tbaa !59
  %3 = load ptr, ptr %2, align 8
  %4 = getelementptr inbounds nuw %class.obj_ref, ptr %3, i32 0, i32 0
  %5 = load ptr, ptr %4, align 8, !tbaa !63
  %6 = icmp ne ptr %5, null
  br i1 %6, label %7, label %12

7:                                                ; preds = %1
  %8 = getelementptr inbounds nuw %class.obj_ref, ptr %3, i32 0, i32 1
  %9 = load ptr, ptr %8, align 8, !tbaa !71
  %10 = getelementptr inbounds nuw %class.obj_ref, ptr %3, i32 0, i32 0
  %11 = load ptr, ptr %10, align 8, !tbaa !63
  call void @_ZN11ast_manager7dec_refEP3ast(ptr noundef nonnull align 8 dereferenceable(976) %9, ptr noundef %11)
  br label %12

12:                                               ; preds = %7, %1
  ret void
}

; Function Attrs: mustprogress uwtable
define linkonce_odr hidden void @_ZN11ast_manager7inc_refEP3ast(ptr noundef nonnull align 8 dereferenceable(976) %0, ptr noundef %1) #4 comdat align 2 {
  %3 = alloca ptr, align 8
  %4 = alloca ptr, align 8
  store ptr %0, ptr %3, align 8, !tbaa !8
  store ptr %1, ptr %4, align 8, !tbaa !140
  %5 = load ptr, ptr %4, align 8, !tbaa !140
  %6 = icmp ne ptr %5, null
  br i1 %6, label %7, label %9

7:                                                ; preds = %2
  %8 = load ptr, ptr %4, align 8, !tbaa !140
  call void @_ZN3ast7inc_refEv(ptr noundef nonnull align 4 dereferenceable(16) %8)
  br label %9

9:                                                ; preds = %7, %2
  ret void
}

; Function Attrs: mustprogress nounwind uwtable
define linkonce_odr hidden noundef ptr @_ZNK7obj_refI4expr11ast_managerE3getEv(ptr noundef nonnull align 8 dereferenceable(16) %0) #7 comdat align 2 {
  %2 = alloca ptr, align 8
  store ptr %0, ptr %2, align 8, !tbaa !59
  %3 = load ptr, ptr %2, align 8
  %4 = getelementptr inbounds nuw %class.obj_ref, ptr %3, i32 0, i32 0
  %5 = load ptr, ptr %4, align 8, !tbaa !63
  ret ptr %5
}

; Function Attrs: mustprogress uwtable
define linkonce_odr hidden noundef nonnull align 8 dereferenceable(16) ptr @_ZN7obj_refI4expr11ast_managerEaSEPS0_(ptr noundef nonnull align 8 dereferenceable(16) %0, ptr noundef %1) #4 comdat align 2 {
  %3 = alloca ptr, align 8
  %4 = alloca ptr, align 8
  store ptr %0, ptr %3, align 8, !tbaa !59
  store ptr %1, ptr %4, align 8, !tbaa !57
  %5 = load ptr, ptr %3, align 8
  %6 = load ptr, ptr %4, align 8, !tbaa !57
  %7 = icmp ne ptr %6, null
  br i1 %7, label %8, label %12

8:                                                ; preds = %2
  %9 = getelementptr inbounds nuw %class.obj_ref, ptr %5, i32 0, i32 1
  %10 = load ptr, ptr %9, align 8, !tbaa !71
  %11 = load ptr, ptr %4, align 8, !tbaa !57
  call void @_ZN11ast_manager7inc_refEP3ast(ptr noundef nonnull align 8 dereferenceable(976) %10, ptr noundef %11)
  br label %12

12:                                               ; preds = %8, %2
  call void @_ZN7obj_refI4expr11ast_managerE7dec_refEv(ptr noundef nonnull align 8 dereferenceable(16) %5)
  %13 = load ptr, ptr %4, align 8, !tbaa !57
  %14 = getelementptr inbounds nuw %class.obj_ref, ptr %5, i32 0, i32 0
  store ptr %13, ptr %14, align 8, !tbaa !63
  ret ptr %5
}

; Function Attrs: mustprogress nounwind uwtable
define linkonce_odr hidden void @_ZN7obj_refI4expr11ast_managerEC2ERS1_(ptr noundef nonnull align 8 dereferenceable(16) %0, ptr noundef nonnull align 8 dereferenceable(976) %1) unnamed_addr #7 comdat align 2 {
  %3 = alloca ptr, align 8
  %4 = alloca ptr, align 8
  store ptr %0, ptr %3, align 8, !tbaa !59
  store ptr %1, ptr %4, align 8, !tbaa !8
  %5 = load ptr, ptr %3, align 8
  %6 = getelementptr inbounds nuw %class.obj_ref, ptr %5, i32 0, i32 0
  store ptr null, ptr %6, align 8, !tbaa !63
  %7 = getelementptr inbounds nuw %class.obj_ref, ptr %5, i32 0, i32 1
  %8 = load ptr, ptr %4, align 8, !tbaa !8
  store ptr %8, ptr %7, align 8, !tbaa !8
  ret void
}

; Function Attrs: mustprogress uwtable
define hidden void @_ZN23expr_context_simplifier10reduce_fixEP4exprR7obj_refIS0_11ast_managerE(ptr noundef nonnull align 8 dereferenceable(161) %0, ptr noundef %1, ptr noundef nonnull align 8 dereferenceable(16) %2) #4 align 2 personality ptr @__gxx_personality_v0 {
  %4 = alloca ptr, align 8
  %5 = alloca ptr, align 8
  %6 = alloca ptr, align 8
  %7 = alloca %class.obj_ref, align 8
  %8 = alloca ptr, align 8
  %9 = alloca i32, align 4
  store ptr %0, ptr %4, align 8, !tbaa !3
  store ptr %1, ptr %5, align 8, !tbaa !57
  store ptr %2, ptr %6, align 8, !tbaa !59
  %10 = load ptr, ptr %4, align 8
  call void @llvm.lifetime.start.p0(i64 16, ptr %7) #3
  %11 = getelementptr inbounds nuw %class.expr_context_simplifier, ptr %10, i32 0, i32 0
  %12 = load ptr, ptr %11, align 8, !tbaa !61
  call void @_ZN7obj_refI4expr11ast_managerEC2ERS1_(ptr noundef nonnull align 8 dereferenceable(16) %7, ptr noundef nonnull align 8 dereferenceable(976) %12)
  %13 = load ptr, ptr %5, align 8, !tbaa !57
  %14 = load ptr, ptr %6, align 8, !tbaa !59
  %15 = invoke noundef nonnull align 8 dereferenceable(16) ptr @_ZN7obj_refI4expr11ast_managerEaSEPS0_(ptr noundef nonnull align 8 dereferenceable(16) %14, ptr noundef %13)
          to label %16 unwind label %35

16:                                               ; preds = %3
  br label %17

17:                                               ; preds = %32, %16
  %18 = load ptr, ptr %6, align 8, !tbaa !59
  %19 = invoke noundef ptr @_ZNK7obj_refI4expr11ast_managerE3getEv(ptr noundef nonnull align 8 dereferenceable(16) %18)
          to label %20 unwind label %35

20:                                               ; preds = %17
  %21 = invoke noundef nonnull align 8 dereferenceable(16) ptr @_ZN7obj_refI4expr11ast_managerEaSEPS0_(ptr noundef nonnull align 8 dereferenceable(16) %7, ptr noundef %19)
          to label %22 unwind label %35

22:                                               ; preds = %20
  %23 = invoke noundef ptr @_ZNK7obj_refI4expr11ast_managerE3getEv(ptr noundef nonnull align 8 dereferenceable(16) %7)
          to label %24 unwind label %35

24:                                               ; preds = %22
  %25 = load ptr, ptr %6, align 8, !tbaa !59
  invoke void @_ZN23expr_context_simplifier6reduceEP4exprR7obj_refIS0_11ast_managerE(ptr noundef nonnull align 8 dereferenceable(161) %10, ptr noundef %23, ptr noundef nonnull align 8 dereferenceable(16) %25)
          to label %26 unwind label %35

26:                                               ; preds = %24
  br label %27

27:                                               ; preds = %26
  %28 = invoke noundef ptr @_ZNK7obj_refI4expr11ast_managerE3getEv(ptr noundef nonnull align 8 dereferenceable(16) %7)
          to label %29 unwind label %35

29:                                               ; preds = %27
  %30 = load ptr, ptr %6, align 8, !tbaa !59
  %31 = invoke noundef ptr @_ZNK7obj_refI4expr11ast_managerE3getEv(ptr noundef nonnull align 8 dereferenceable(16) %30)
          to label %32 unwind label %35

32:                                               ; preds = %29
  %33 = icmp ne ptr %28, %31
  br i1 %33, label %17, label %34, !llvm.loop !70

34:                                               ; preds = %32
  call void @_ZN7obj_refI4expr11ast_managerED2Ev(ptr noundef nonnull align 8 dereferenceable(16) %7) #3
  call void @llvm.lifetime.end.p0(i64 16, ptr %7) #3
  ret void

35:                                               ; preds = %29, %27, %24, %22, %20, %17, %3
  %36 = landingpad { ptr, i32 }
          cleanup
  %37 = extractvalue { ptr, i32 } %36, 0
  store ptr %37, ptr %8, align 8
  %38 = extractvalue { ptr, i32 } %36, 1
  store i32 %38, ptr %9, align 4
  call void @_ZN7obj_refI4expr11ast_managerED2Ev(ptr noundef nonnull align 8 dereferenceable(16) %7) #3
  call void @llvm.lifetime.end.p0(i64 16, ptr %7) #3
  br label %39

39:                                               ; preds = %35
  %40 = load ptr, ptr %8, align 8
  %41 = load i32, ptr %9, align 4
  %42 = insertvalue { ptr, i32 } poison, ptr %40, 0
  %43 = insertvalue { ptr, i32 } %42, i32 %41, 1
  resume { ptr, i32 } %43
}