; Function Attrs: mustprogress uwtable
define hidden void @_ZN23expr_context_simplifier10reduce_fixEP4exprR7obj_refIS0_11ast_managerE(ptr noundef nonnull align 8 dereferenceable(161) %0, ptr noundef %1, ptr noundef nonnull align 8 dereferenceable(16) %2) local_unnamed_addr #3 align 2 personality ptr @__gxx_personality_v0 {
  %4 = alloca %class.obj_ref, align 8
  call void @llvm.lifetime.start.p0(i64 16, ptr nonnull %4) #19
  %5 = load ptr, ptr %0, align 8, !tbaa !54
  store ptr null, ptr %4, align 8, !tbaa !55
  %6 = getelementptr inbounds nuw i8, ptr %4, i64 8
  store ptr %5, ptr %6, align 8, !tbaa !3
  %.not.i = icmp eq ptr %1, null
  br i1 %.not.i, label %10, label %_ZN11ast_manager7inc_refEP3ast.exit.i

_ZN11ast_manager7inc_refEP3ast.exit.i:            ; preds = %3
  %7 = getelementptr inbounds nuw i8, ptr %1, i64 8
  %8 = load i32, ptr %7, align 4, !tbaa !51
  %9 = add i32 %8, 1
  store i32 %9, ptr %7, align 4, !tbaa !51
  br label %10

10:                                               ; preds = %_ZN11ast_manager7inc_refEP3ast.exit.i, %3
  %11 = load ptr, ptr %2, align 8, !tbaa !55
  %.not.i4.i = icmp eq ptr %11, null
  br i1 %.not.i4.i, label %_ZN7obj_refI4expr11ast_managerEaSEPS0_.exit, label %12

12:                                               ; preds = %10
  %13 = getelementptr inbounds nuw i8, ptr %2, i64 8
  %14 = load ptr, ptr %13, align 8, !tbaa !60
  %15 = getelementptr inbounds nuw i8, ptr %11, i64 8
  %16 = load i32, ptr %15, align 4, !tbaa !51
  %17 = add i32 %16, -1
  store i32 %17, ptr %15, align 4, !tbaa !51
  %18 = icmp eq i32 %17, 0
  br i1 %18, label %19, label %_ZN7obj_refI4expr11ast_managerEaSEPS0_.exit

19:                                               ; preds = %12
  invoke void @_ZN11ast_manager11delete_nodeEP3ast(ptr noundef nonnull align 8 dereferenceable(976) %14, ptr noundef nonnull %11)
          to label %_ZN7obj_refI4expr11ast_managerEaSEPS0_.exit unwind label %.loopexit.split-lp

_ZN7obj_refI4expr11ast_managerEaSEPS0_.exit:      ; preds = %19, %10, %12
  store ptr %1, ptr %2, align 8, !tbaa !55
  br label %20

20:                                               ; preds = %_ZN7obj_refI4expr11ast_managerEaSEPS0_.exit, %34
  %21 = phi ptr [ null, %_ZN7obj_refI4expr11ast_managerEaSEPS0_.exit ], [ %22, %34 ]
  %22 = phi ptr [ %1, %_ZN7obj_refI4expr11ast_managerEaSEPS0_.exit ], [ %35, %34 ]
  %.not.i7 = icmp eq ptr %22, null
  br i1 %.not.i7, label %26, label %_ZN11ast_manager7inc_refEP3ast.exit.i8

_ZN11ast_manager7inc_refEP3ast.exit.i8:           ; preds = %20
  %23 = getelementptr inbounds nuw i8, ptr %22, i64 8
  %24 = load i32, ptr %23, align 4, !tbaa !51
  %25 = add i32 %24, 1
  store i32 %25, ptr %23, align 4, !tbaa !51
  br label %26

26:                                               ; preds = %_ZN11ast_manager7inc_refEP3ast.exit.i8, %20
  %.not.i4.i9 = icmp eq ptr %21, null
  br i1 %.not.i4.i9, label %33, label %27

27:                                               ; preds = %26
  %28 = getelementptr inbounds nuw i8, ptr %21, i64 8
  %29 = load i32, ptr %28, align 4, !tbaa !51
  %30 = add i32 %29, -1
  store i32 %30, ptr %28, align 4, !tbaa !51
  %31 = icmp eq i32 %30, 0
  br i1 %31, label %32, label %33

32:                                               ; preds = %27
  invoke void @_ZN11ast_manager11delete_nodeEP3ast(ptr noundef nonnull align 8 dereferenceable(976) %5, ptr noundef nonnull %21)
          to label %33 unwind label %.loopexit

33:                                               ; preds = %27, %26, %32
  store ptr %22, ptr %4, align 8, !tbaa !55
  invoke void @_ZN23expr_context_simplifier6reduceEP4exprR7obj_refIS0_11ast_managerE(ptr noundef nonnull align 8 dereferenceable(161) %0, ptr noundef %22, ptr noundef nonnull align 8 dereferenceable(16) %2)
          to label %34 unwind label %.loopexit

34:                                               ; preds = %33
  %35 = load ptr, ptr %2, align 8, !tbaa !55
  %.not = icmp eq ptr %22, %35
  br i1 %.not, label %36, label %20, !llvm.loop !87

36:                                               ; preds = %34
  br i1 %.not.i7, label %_ZN7obj_refI4expr11ast_managerED2Ev.exit, label %37

37:                                               ; preds = %36
  %38 = getelementptr inbounds nuw i8, ptr %22, i64 8
  %39 = load i32, ptr %38, align 4, !tbaa !51
  %40 = add i32 %39, -1
  store i32 %40, ptr %38, align 4, !tbaa !51
  %41 = icmp eq i32 %40, 0
  br i1 %41, label %42, label %_ZN7obj_refI4expr11ast_managerED2Ev.exit

42:                                               ; preds = %37
  invoke void @_ZN11ast_manager11delete_nodeEP3ast(ptr noundef nonnull align 8 dereferenceable(976) %5, ptr noundef nonnull %22)
          to label %_ZN7obj_refI4expr11ast_managerED2Ev.exit unwind label %43

43:                                               ; preds = %42
  %44 = landingpad { ptr, i32 }
          catch ptr null
  %45 = extractvalue { ptr, i32 } %44, 0
  tail call void @__clang_call_terminate(ptr %45) #20
  unreachable

_ZN7obj_refI4expr11ast_managerED2Ev.exit:         ; preds = %36, %37, %42
  call void @llvm.lifetime.end.p0(i64 16, ptr nonnull %4) #19
  ret void

.loopexit:                                        ; preds = %33, %32
  %lpad.loopexit = landingpad { ptr, i32 }
          cleanup
  br label %46

.loopexit.split-lp:                               ; preds = %19
  %lpad.loopexit.split-lp = landingpad { ptr, i32 }
          cleanup
  br label %46

46:                                               ; preds = %.loopexit.split-lp, %.loopexit
  %lpad.phi = phi { ptr, i32 } [ %lpad.loopexit, %.loopexit ], [ %lpad.loopexit.split-lp, %.loopexit.split-lp ]
  call void @_ZN7obj_refI4expr11ast_managerED2Ev(ptr noundef nonnull align 8 dereferenceable(16) %4) #19
  call void @llvm.lifetime.end.p0(i64 16, ptr nonnull %4) #19
  resume { ptr, i32 } %lpad.phi
}